target datalayout = "e-m:e-p270:32:32-p271:32:32-p272:64:64-i64:64-i128:128-f80:128-n8:16:32:64-S128"
target triple = "x86_64-pc-linux-gnu"

%struct.asn1_string_st = type { i32, i32, ptr, i64 }

@.str = private unnamed_addr constant [33 x i8] c"../openssl/crypto/x509/v3_conf.c\00", align 1
@.str.6 = private unnamed_addr constant [8 x i8] c"name=%s\00", align 1
@__func__.v3_generic_extension = private unnamed_addr constant [21 x i8] c"v3_generic_extension\00", align 1
@.str.10 = private unnamed_addr constant [9 x i8] c"value=%s\00", align 1

; Function Attrs: nounwind uwtable
define internal ptr @generic_asn1(ptr noundef %0, ptr noundef %1, ptr noundef %2) #0 {
  %4 = alloca ptr, align 8
  %5 = alloca ptr, align 8
  %6 = alloca ptr, align 8
  %7 = alloca ptr, align 8
  %8 = alloca ptr, align 8
  %9 = alloca ptr, align 8
  %10 = alloca i32, align 4
  store ptr %0, ptr %5, align 8, !tbaa !10
  store ptr %1, ptr %6, align 8, !tbaa !8
  store ptr %2, ptr %7, align 8, !tbaa !79
  call void @llvm.lifetime.start.p0(i64 8, ptr %8) #5
  call void @llvm.lifetime.start.p0(i64 8, ptr %9) #5
  store ptr null, ptr %9, align 8, !tbaa !10
  %11 = load ptr, ptr %5, align 8, !tbaa !10
  %12 = load ptr, ptr %6, align 8, !tbaa !8
  %13 = call ptr @ASN1_generate_v3(ptr noundef %11, ptr noundef %12)
  store ptr %13, ptr %8, align 8, !tbaa !81
  %14 = load ptr, ptr %8, align 8, !tbaa !81
  %15 = icmp eq ptr %14, null
  br i1 %15, label %16, label %17

16:                                               ; preds = %3
  store ptr null, ptr %4, align 8
  store i32 1, ptr %10, align 4
  br label %24

17:                                               ; preds = %3
  %18 = load ptr, ptr %8, align 8, !tbaa !81
  %19 = call i32 @i2d_ASN1_TYPE(ptr noundef %18, ptr noundef %9)
  %20 = sext i32 %19 to i64
  %21 = load ptr, ptr %7, align 8, !tbaa !79
  store i64 %20, ptr %21, align 8, !tbaa !22
  %22 = load ptr, ptr %8, align 8, !tbaa !81
  call void @ASN1_TYPE_free(ptr noundef %22)
  %23 = load ptr, ptr %9, align 8, !tbaa !10
  store ptr %23, ptr %4, align 8
  store i32 1, ptr %10, align 4
  br label %24

24:                                               ; preds = %17, %16
  call void @llvm.lifetime.end.p0(i64 8, ptr %9) #5
  call void @llvm.lifetime.end.p0(i64 8, ptr %8) #5
  %25 = load ptr, ptr %4, align 8
  ret ptr %25
}

; Function Attrs: nounwind uwtable
define internal ptr @v3_generic_extension(ptr noundef %0, ptr noundef %1, i32 noundef %2, i32 noundef %3, ptr noundef %4) #0 {
  %6 = alloca ptr, align 8
  %7 = alloca ptr, align 8
  %8 = alloca i32, align 4
  %9 = alloca i32, align 4
  %10 = alloca ptr, align 8
  %11 = alloca ptr, align 8
  %12 = alloca i64, align 8
  %13 = alloca ptr, align 8
  %14 = alloca ptr, align 8
  %15 = alloca ptr, align 8
  store ptr %0, ptr %6, align 8, !tbaa !10
  store ptr %1, ptr %7, align 8, !tbaa !10
  store i32 %2, ptr %8, align 4, !tbaa !12
  store i32 %3, ptr %9, align 4, !tbaa !12
  store ptr %4, ptr %10, align 8, !tbaa !8
  call void @llvm.lifetime.start.p0(i64 8, ptr %11) #5
  store ptr null, ptr %11, align 8, !tbaa !10
  call void @llvm.lifetime.start.p0(i64 8, ptr %12) #5
  store i64 0, ptr %12, align 8, !tbaa !22
  call void @llvm.lifetime.start.p0(i64 8, ptr %13) #5
  store ptr null, ptr %13, align 8, !tbaa !24
  call void @llvm.lifetime.start.p0(i64 8, ptr %14) #5
  store ptr null, ptr %14, align 8, !tbaa !26
  call void @llvm.lifetime.start.p0(i64 8, ptr %15) #5
  store ptr null, ptr %15, align 8, !tbaa !14
  %16 = load ptr, ptr %6, align 8, !tbaa !10
  %17 = call ptr @OBJ_txt2obj(ptr noundef %16, i32 noundef 0)
  store ptr %17, ptr %13, align 8, !tbaa !24
  %18 = icmp eq ptr %17, null
  br i1 %18, label %19, label %21

19:                                               ; preds = %5
  call void @ERR_new()
  call void @ERR_set_debug(ptr noundef @.str, i32 noundef 249, ptr noundef @__func__.v3_generic_extension)
  %20 = load ptr, ptr %6, align 8, !tbaa !10
  call void (i32, i32, ptr, ...) @ERR_set_error(i32 noundef 34, i32 noundef 115, ptr noundef @.str.6, ptr noundef %20)
  br label %56

21:                                               ; preds = %5
  %22 = load i32, ptr %9, align 4, !tbaa !12
  %23 = icmp eq i32 %22, 1
  br i1 %23, label %24, label %27

24:                                               ; preds = %21
  %25 = load ptr, ptr %7, align 8, !tbaa !10
  %26 = call ptr @OPENSSL_hexstr2buf(ptr noundef %25, ptr noundef %12)
  store ptr %26, ptr %11, align 8, !tbaa !10
  br label %35

27:                                               ; preds = %21
  %28 = load i32, ptr %9, align 4, !tbaa !12
  %29 = icmp eq i32 %28, 2
  br i1 %29, label %30, label %34

30:                                               ; preds = %27
  %31 = load ptr, ptr %7, align 8, !tbaa !10
  %32 = load ptr, ptr %10, align 8, !tbaa !8
  %33 = call ptr @generic_asn1(ptr noundef %31, ptr noundef %32, ptr noundef %12)
  store ptr %33, ptr %11, align 8, !tbaa !10
  br label %34

34:                                               ; preds = %30, %27
  br label %35

35:                                               ; preds = %34, %24
  %36 = load ptr, ptr %11, align 8, !tbaa !10
  %37 = icmp eq ptr %36, null
  br i1 %37, label %38, label %40

38:                                               ; preds = %35
  call void @ERR_new()
  call void @ERR_set_debug(ptr noundef @.str, i32 noundef 260, ptr noundef @__func__.v3_generic_extension)
  %39 = load ptr, ptr %7, align 8, !tbaa !10
  call void (i32, i32, ptr, ...) @ERR_set_error(i32 noundef 34, i32 noundef 116, ptr noundef @.str.10, ptr noundef %39)
  br label %56

40:                                               ; preds = %35
  %41 = call ptr @ASN1_OCTET_STRING_new()
  store ptr %41, ptr %14, align 8, !tbaa !26
  %42 = icmp eq ptr %41, null
  br i1 %42, label %43, label %44

43:                                               ; preds = %40
  call void @ERR_new()
  call void @ERR_set_debug(ptr noundef @.str, i32 noundef 266, ptr noundef @__func__.v3_generic_extension)
  call void (i32, i32, ptr, ...) @ERR_set_error(i32 noundef 34, i32 noundef 524301, ptr noundef null)
  br label %56

44:                                               ; preds = %40
  %45 = load ptr, ptr %11, align 8, !tbaa !10
  %46 = load ptr, ptr %14, align 8, !tbaa !26
  %47 = getelementptr inbounds nuw %struct.asn1_string_st, ptr %46, i32 0, i32 2
  store ptr %45, ptr %47, align 8, !tbaa !28
  %48 = load i64, ptr %12, align 8, !tbaa !22
  %49 = trunc i64 %48 to i32
  %50 = load ptr, ptr %14, align 8, !tbaa !26
  %51 = getelementptr inbounds nuw %struct.asn1_string_st, ptr %50, i32 0, i32 0
  store i32 %49, ptr %51, align 8, !tbaa !30
  store ptr null, ptr %11, align 8, !tbaa !10
  %52 = load ptr, ptr %13, align 8, !tbaa !24
  %53 = load i32, ptr %8, align 4, !tbaa !12
  %54 = load ptr, ptr %14, align 8, !tbaa !26
  %55 = call ptr @X509_EXTENSION_create_by_OBJ(ptr noundef null, ptr noundef %52, i32 noundef %53, ptr noundef %54)
  store ptr %55, ptr %15, align 8, !tbaa !14
  br label %56

56:                                               ; preds = %44, %43, %38, %19
  %57 = load ptr, ptr %13, align 8, !tbaa !24
  call void @ASN1_OBJECT_free(ptr noundef %57)
  %58 = load ptr, ptr %14, align 8, !tbaa !26
  call void @ASN1_OCTET_STRING_free(ptr noundef %58)
  %59 = load ptr, ptr %11, align 8, !tbaa !10
  call void @CRYPTO_free(ptr noundef %59, ptr noundef @.str, i32 noundef 279)
  %60 = load ptr, ptr %15, align 8, !tbaa !14
  call void @llvm.lifetime.end.p0(i64 8, ptr %15) #5
  call void @llvm.lifetime.end.p0(i64 8, ptr %14) #5
  call void @llvm.lifetime.end.p0(i64 8, ptr %13) #5
  call void @llvm.lifetime.end.p0(i64 8, ptr %12) #5
  call void @llvm.lifetime.end.p0(i64 8, ptr %11) #5
  ret ptr %60
}