; Function Attrs: nounwind uwtable
define internal fastcc ptr @v3_generic_extension(ptr noundef %0, ptr noundef %1, i32 noundef range(i32 0, 2) %2, i32 noundef range(i32 1, 0) %3, ptr noundef %4) unnamed_addr #0 {
  %6 = alloca ptr, align 8
  %7 = alloca i64, align 8
  call void @llvm.lifetime.start.p0(i64 8, ptr nonnull %7) #6
  store i64 0, ptr %7, align 8, !tbaa !9
  %8 = tail call ptr @OBJ_txt2obj(ptr noundef %0, i32 noundef 0) #6
  %9 = icmp eq ptr %8, null
  br i1 %9, label %10, label %11

10:                                               ; preds = %5
  tail call void @ERR_new() #6
  tail call void @ERR_set_debug(ptr noundef nonnull @.str, i32 noundef 249, ptr noundef nonnull @__func__.v3_generic_extension) #6
  tail call void (i32, i32, ptr, ...) @ERR_set_error(i32 noundef 34, i32 noundef 115, ptr noundef nonnull @.str.6, ptr noundef %0) #6
  br label %32

11:                                               ; preds = %5
  switch i32 %3, label %.thread [
    i32 1, label %12
    i32 2, label %14
  ]

12:                                               ; preds = %11
  %13 = call ptr @OPENSSL_hexstr2buf(ptr noundef %1, ptr noundef nonnull %7) #6
  br label %21

14:                                               ; preds = %11
  call void @llvm.lifetime.start.p0(i64 8, ptr nonnull %6) #6
  store ptr null, ptr %6, align 8, !tbaa !11
  %15 = tail call ptr @ASN1_generate_v3(ptr noundef %1, ptr noundef %4) #6
  %16 = icmp eq ptr %15, null
  br i1 %16, label %generic_asn1.exit, label %17

17:                                               ; preds = %14
  %18 = call i32 @i2d_ASN1_TYPE(ptr noundef nonnull %15, ptr noundef nonnull %6) #6
  %19 = sext i32 %18 to i64
  store i64 %19, ptr %7, align 8, !tbaa !9
  call void @ASN1_TYPE_free(ptr noundef nonnull %15) #6
  %20 = load ptr, ptr %6, align 8, !tbaa !11
  br label %generic_asn1.exit

generic_asn1.exit:                                ; preds = %14, %17
  %.0.i = phi ptr [ %20, %17 ], [ null, %14 ]
  call void @llvm.lifetime.end.p0(i64 8, ptr nonnull %6) #6
  br label %21

21:                                               ; preds = %generic_asn1.exit, %12
  %.1 = phi ptr [ %13, %12 ], [ %.0.i, %generic_asn1.exit ]
  %22 = icmp eq ptr %.1, null
  br i1 %22, label %.thread, label %23

.thread:                                          ; preds = %11, %21
  call void @ERR_new() #6
  call void @ERR_set_debug(ptr noundef nonnull @.str, i32 noundef 260, ptr noundef nonnull @__func__.v3_generic_extension) #6
  call void (i32, i32, ptr, ...) @ERR_set_error(i32 noundef 34, i32 noundef 116, ptr noundef nonnull @.str.10, ptr noundef %1) #6
  br label %32

23:                                               ; preds = %21
  %24 = call ptr @ASN1_OCTET_STRING_new() #6
  %25 = icmp eq ptr %24, null
  br i1 %25, label %26, label %27

26:                                               ; preds = %23
  call void @ERR_new() #6
  call void @ERR_set_debug(ptr noundef nonnull @.str, i32 noundef 266, ptr noundef nonnull @__func__.v3_generic_extension) #6
  call void (i32, i32, ptr, ...) @ERR_set_error(i32 noundef 34, i32 noundef 524301, ptr noundef null) #6
  br label %32

27:                                               ; preds = %23
  %28 = getelementptr inbounds nuw i8, ptr %24, i64 8
  store ptr %.1, ptr %28, align 8, !tbaa !14
  %29 = load i64, ptr %7, align 8, !tbaa !9
  %30 = trunc i64 %29 to i32
  store i32 %30, ptr %24, align 8, !tbaa !17
  %31 = call ptr @X509_EXTENSION_create_by_OBJ(ptr noundef null, ptr noundef nonnull %8, i32 noundef %2, ptr noundef nonnull %24) #6
  br label %32

32:                                               ; preds = %27, %26, %.thread, %10
  %.019 = phi ptr [ null, %10 ], [ null, %.thread ], [ %.1, %26 ], [ null, %27 ]
  %.018 = phi ptr [ null, %10 ], [ null, %.thread ], [ null, %26 ], [ %24, %27 ]
  %.0 = phi ptr [ null, %10 ], [ null, %.thread ], [ null, %26 ], [ %31, %27 ]
  call void @ASN1_OBJECT_free(ptr noundef %8) #6
  call void @ASN1_OCTET_STRING_free(ptr noundef %.018) #6
  call void @CRYPTO_free(ptr noundef %.019, ptr noundef nonnull @.str, i32 noundef 279) #6
  call void @llvm.lifetime.end.p0(i64 8, ptr nonnull %7) #6
  ret ptr %.0
}